target datalayout = "e-m:e-p270:32:32-p271:32:32-p272:64:64-i64:64-i128:128-f80:128-n8:16:32:64-S128"
target triple = "x86_64-pc-linux-gnu"

%"struct.pkpy::StrName" = type { i16 }
%"class.std::basic_string_view" = type { i64, ptr }
%"struct.pkpy::Str" = type { i32, i8, ptr, [16 x i8] }
%"struct.pkpy::FileIO" = type <{ ptr, i8, [7 x i8] }>

@.str.6 = private unnamed_addr constant [2 x i8] c"b\00", align 1
@.str.38 = private unnamed_addr constant [8 x i8] c"IOError\00", align 1

; Function Attrs: mustprogress nounwind uwtable
define linkonce_odr void @_ZNSt17basic_string_viewIcSt11char_traitsIcEEC2EPKc(ptr noundef nonnull align 8 dereferenceable(16) %0, ptr noundef nonnull %1) unnamed_addr #5 comdat align 2 {
  %3 = alloca ptr, align 8
  %4 = alloca ptr, align 8
  store ptr %0, ptr %3, align 8
  store ptr %1, ptr %4, align 8
  %5 = load ptr, ptr %3, align 8
  %6 = getelementptr inbounds %"class.std::basic_string_view", ptr %5, i32 0, i32 0
  %7 = load ptr, ptr %4, align 8
  %8 = call noundef i64 @_ZNSt11char_traitsIcE6lengthEPKc(ptr noundef %7)
  store i64 %8, ptr %6, align 8
  %9 = getelementptr inbounds %"class.std::basic_string_view", ptr %5, i32 0, i32 1
  %10 = load ptr, ptr %4, align 8
  store ptr %10, ptr %9, align 8
  ret void
}

; Function Attrs: noreturn nounwind uwtable
define linkonce_odr hidden void @__clang_call_terminate(ptr noundef %0) #11 comdat {
  %2 = call ptr @__cxa_begin_catch(ptr %0) #3
  call void @_ZSt9terminatev() #17
  unreachable
}

; Function Attrs: mustprogress nounwind uwtable
define linkonce_odr noundef i32 @_ZNSt11char_traitsIcE7compareEPKcS2_m(ptr noundef %0, ptr noundef %1, i64 noundef %2) #5 comdat align 2 {
  %4 = alloca i32, align 4
  %5 = alloca ptr, align 8
  %6 = alloca ptr, align 8
  %7 = alloca i64, align 8
  store ptr %0, ptr %5, align 8
  store ptr %1, ptr %6, align 8
  store i64 %2, ptr %7, align 8
  %8 = load i64, ptr %7, align 8
  %9 = icmp eq i64 %8, 0
  br i1 %9, label %10, label %11

10:                                               ; preds = %3
  store i32 0, ptr %4, align 4
  br label %16

11:                                               ; preds = %3
  %12 = load ptr, ptr %5, align 8
  %13 = load ptr, ptr %6, align 8
  %14 = load i64, ptr %7, align 8
  %15 = call i32 @memcmp(ptr noundef %12, ptr noundef %13, i64 noundef %14) #3
  store i32 %15, ptr %4, align 4
  br label %16

16:                                               ; preds = %11, %10
  %17 = load i32, ptr %4, align 4
  ret i32 %17
}

; Function Attrs: mustprogress nounwind uwtable
define linkonce_odr noundef ptr @_ZNSt11char_traitsIcE4findEPKcmRS1_(ptr noundef %0, i64 noundef %1, ptr noundef nonnull align 1 dereferenceable(1) %2) #5 comdat align 2 {
  %4 = alloca ptr, align 8
  %5 = alloca ptr, align 8
  %6 = alloca i64, align 8
  %7 = alloca ptr, align 8
  store ptr %0, ptr %5, align 8
  store i64 %1, ptr %6, align 8
  store ptr %2, ptr %7, align 8
  %8 = load i64, ptr %6, align 8
  %9 = icmp eq i64 %8, 0
  br i1 %9, label %10, label %11

10:                                               ; preds = %3
  store ptr null, ptr %4, align 8
  br label %18

11:                                               ; preds = %3
  %12 = load ptr, ptr %5, align 8
  %13 = load ptr, ptr %7, align 8
  %14 = load i8, ptr %13, align 1
  %15 = sext i8 %14 to i32
  %16 = load i64, ptr %6, align 8
  %17 = call ptr @memchr(ptr noundef %12, i32 noundef %15, i64 noundef %16) #3
  store ptr %17, ptr %4, align 8
  br label %18

18:                                               ; preds = %11, %10
  %19 = load ptr, ptr %4, align 8
  ret ptr %19
}

; Function Attrs: mustprogress uwtable
define linkonce_odr void @_ZN4pkpy7StrNameC2EPKc(ptr noundef nonnull align 2 dereferenceable(2) %0, ptr noundef %1) unnamed_addr #4 comdat align 2 {
  %3 = alloca ptr, align 8
  %4 = alloca ptr, align 8
  %5 = alloca %"struct.pkpy::StrName", align 2
  %6 = alloca %"class.std::basic_string_view", align 8
  store ptr %0, ptr %3, align 8
  store ptr %1, ptr %4, align 8
  %7 = load ptr, ptr %3, align 8
  %8 = getelementptr inbounds %"struct.pkpy::StrName", ptr %7, i32 0, i32 0
  %9 = load ptr, ptr %4, align 8
  call void @_ZNSt17basic_string_viewIcSt11char_traitsIcEEC2EPKc(ptr noundef nonnull align 8 dereferenceable(16) %6, ptr noundef %9) #3
  %10 = getelementptr inbounds { i64, ptr }, ptr %6, i32 0, i32 0
  %11 = load i64, ptr %10, align 8
  %12 = getelementptr inbounds { i64, ptr }, ptr %6, i32 0, i32 1
  %13 = load ptr, ptr %12, align 8
  %14 = call i16 @_ZN4pkpy7StrName3getESt17basic_string_viewIcSt11char_traitsIcEE(i64 %11, ptr %13)
  %15 = getelementptr inbounds %"struct.pkpy::StrName", ptr %5, i32 0, i32 0
  store i16 %14, ptr %15, align 2
  %16 = getelementptr inbounds %"struct.pkpy::StrName", ptr %5, i32 0, i32 0
  %17 = load i16, ptr %16, align 2
  store i16 %17, ptr %8, align 2
  ret void
}

; Function Attrs: mustprogress nounwind uwtable
define linkonce_odr noundef i64 @_ZNKSt17basic_string_viewIcSt11char_traitsIcEE4findEPKcmm(ptr noundef nonnull align 8 dereferenceable(16) %0, ptr noundef %1, i64 noundef %2, i64 noundef %3) #5 comdat align 2 personality ptr @__gxx_personality_v0 {
  %5 = alloca i64, align 8
  %6 = alloca ptr, align 8
  %7 = alloca ptr, align 8
  %8 = alloca i64, align 8
  %9 = alloca i64, align 8
  %10 = alloca i8, align 1
  %11 = alloca ptr, align 8
  %12 = alloca ptr, align 8
  %13 = alloca i64, align 8
  store ptr %0, ptr %6, align 8
  store ptr %1, ptr %7, align 8
  store i64 %2, ptr %8, align 8
  store i64 %3, ptr %9, align 8
  %14 = load ptr, ptr %6, align 8
  %15 = load i64, ptr %9, align 8
  %16 = icmp eq i64 %15, 0
  br i1 %16, label %17, label %27

17:                                               ; preds = %4
  %18 = load i64, ptr %8, align 8
  %19 = getelementptr inbounds %"class.std::basic_string_view", ptr %14, i32 0, i32 0
  %20 = load i64, ptr %19, align 8
  %21 = icmp ule i64 %18, %20
  br i1 %21, label %22, label %24

22:                                               ; preds = %17
  %23 = load i64, ptr %8, align 8
  br label %25

24:                                               ; preds = %17
  br label %25

25:                                               ; preds = %24, %22
  %26 = phi i64 [ %23, %22 ], [ -1, %24 ]
  store i64 %26, ptr %5, align 8
  br label %87

27:                                               ; preds = %4
  %28 = load i64, ptr %8, align 8
  %29 = getelementptr inbounds %"class.std::basic_string_view", ptr %14, i32 0, i32 0
  %30 = load i64, ptr %29, align 8
  %31 = icmp uge i64 %28, %30
  br i1 %31, label %32, label %33

32:                                               ; preds = %27
  store i64 -1, ptr %5, align 8
  br label %87

33:                                               ; preds = %27
  %34 = load ptr, ptr %7, align 8
  %35 = getelementptr inbounds i8, ptr %34, i64 0
  %36 = load i8, ptr %35, align 1
  store i8 %36, ptr %10, align 1
  %37 = getelementptr inbounds %"class.std::basic_string_view", ptr %14, i32 0, i32 1
  %38 = load ptr, ptr %37, align 8
  %39 = load i64, ptr %8, align 8
  %40 = getelementptr inbounds i8, ptr %38, i64 %39
  store ptr %40, ptr %11, align 8
  %41 = getelementptr inbounds %"class.std::basic_string_view", ptr %14, i32 0, i32 1
  %42 = load ptr, ptr %41, align 8
  %43 = getelementptr inbounds %"class.std::basic_string_view", ptr %14, i32 0, i32 0
  %44 = load i64, ptr %43, align 8
  %45 = getelementptr inbounds i8, ptr %42, i64 %44
  store ptr %45, ptr %12, align 8
  %46 = getelementptr inbounds %"class.std::basic_string_view", ptr %14, i32 0, i32 0
  %47 = load i64, ptr %46, align 8
  %48 = load i64, ptr %8, align 8
  %49 = sub i64 %47, %48
  store i64 %49, ptr %13, align 8
  br label %50

50:                                               ; preds = %79, %33
  %51 = load i64, ptr %13, align 8
  %52 = load i64, ptr %9, align 8
  %53 = icmp uge i64 %51, %52
  br i1 %53, label %54, label %86

54:                                               ; preds = %50
  %55 = load ptr, ptr %11, align 8
  %56 = load i64, ptr %13, align 8
  %57 = load i64, ptr %9, align 8
  %58 = sub i64 %56, %57
  %59 = add i64 %58, 1
  %60 = invoke noundef ptr @_ZNSt11char_traitsIcE4findEPKcmRS1_(ptr noundef %55, i64 noundef %59, ptr noundef nonnull align 1 dereferenceable(1) %10)
          to label %61 unwind label %89

61:                                               ; preds = %54
  store ptr %60, ptr %11, align 8
  %62 = load ptr, ptr %11, align 8
  %63 = icmp ne ptr %62, null
  br i1 %63, label %65, label %64

64:                                               ; preds = %61
  store i64 -1, ptr %5, align 8
  br label %87

65:                                               ; preds = %61
  %66 = load ptr, ptr %11, align 8
  %67 = load ptr, ptr %7, align 8
  %68 = load i64, ptr %9, align 8
  %69 = invoke noundef i32 @_ZNSt11char_traitsIcE7compareEPKcS2_m(ptr noundef %66, ptr noundef %67, i64 noundef %68)
          to label %70 unwind label %89

70:                                               ; preds = %65
  %71 = icmp eq i32 %69, 0
  br i1 %71, label %72, label %79

72:                                               ; preds = %70
  %73 = load ptr, ptr %11, align 8
  %74 = getelementptr inbounds %"class.std::basic_string_view", ptr %14, i32 0, i32 1
  %75 = load ptr, ptr %74, align 8
  %76 = ptrtoint ptr %73 to i64
  %77 = ptrtoint ptr %75 to i64
  %78 = sub i64 %76, %77
  store i64 %78, ptr %5, align 8
  br label %87

79:                                               ; preds = %70
  %80 = load ptr, ptr %12, align 8
  %81 = load ptr, ptr %11, align 8
  %82 = getelementptr inbounds i8, ptr %81, i32 1
  store ptr %82, ptr %11, align 8
  %83 = ptrtoint ptr %80 to i64
  %84 = ptrtoint ptr %82 to i64
  %85 = sub i64 %83, %84
  store i64 %85, ptr %13, align 8
  br label %50, !llvm.loop !10

86:                                               ; preds = %50
  store i64 -1, ptr %5, align 8
  br label %87

87:                                               ; preds = %86, %72, %64, %32, %25
  %88 = load i64, ptr %5, align 8
  ret i64 %88

89:                                               ; preds = %65, %54
  %90 = landingpad { ptr, i32 }
          catch ptr null
  %91 = extractvalue { ptr, i32 } %90, 0
  call void @__clang_call_terminate(ptr %91) #17
  unreachable
}

; Function Attrs: mustprogress nounwind uwtable
define linkonce_odr noundef i64 @_ZNSt11char_traitsIcE6lengthEPKc(ptr noundef %0) #5 comdat align 2 {
  %2 = alloca ptr, align 8
  store ptr %0, ptr %2, align 8
  %3 = load ptr, ptr %2, align 8
  %4 = call i64 @strlen(ptr noundef %3) #3
  ret i64 %4
}

; Function Attrs: mustprogress nounwind uwtable
define linkonce_odr void @_ZNSt17basic_string_viewIcSt11char_traitsIcEEC2EPKcm(ptr noundef nonnull align 8 dereferenceable(16) %0, ptr noundef %1, i64 noundef %2) unnamed_addr #5 comdat align 2 {
  %4 = alloca ptr, align 8
  %5 = alloca ptr, align 8
  %6 = alloca i64, align 8
  store ptr %0, ptr %4, align 8
  store ptr %1, ptr %5, align 8
  store i64 %2, ptr %6, align 8
  %7 = load ptr, ptr %4, align 8
  %8 = getelementptr inbounds %"class.std::basic_string_view", ptr %7, i32 0, i32 0
  %9 = load i64, ptr %6, align 8
  store i64 %9, ptr %8, align 8
  %10 = getelementptr inbounds %"class.std::basic_string_view", ptr %7, i32 0, i32 1
  %11 = load ptr, ptr %5, align 8
  store ptr %11, ptr %10, align 8
  ret void
}

; Function Attrs: mustprogress uwtable
define linkonce_odr void @_ZN4pkpy2VM7IOErrorERKNS_3StrE(ptr noundef nonnull align 8 dereferenceable(264913) %0, ptr noundef nonnull align 8 dereferenceable(32) %1) #4 comdat align 2 {
  %3 = alloca ptr, align 8
  %4 = alloca ptr, align 8
  %5 = alloca %"struct.pkpy::StrName", align 2
  store ptr %0, ptr %3, align 8
  store ptr %1, ptr %4, align 8
  %6 = load ptr, ptr %3, align 8
  call void @_ZN4pkpy7StrNameC2EPKc(ptr noundef nonnull align 2 dereferenceable(2) %5, ptr noundef @.str.38)
  %7 = load ptr, ptr %4, align 8
  %8 = getelementptr inbounds %"struct.pkpy::StrName", ptr %5, i32 0, i32 0
  %9 = load i16, ptr %8, align 2
  call void @_ZN4pkpy2VM15__builtin_errorENS_7StrNameERKNS_3StrE(ptr noundef nonnull align 8 dereferenceable(264913) %6, i16 %9, ptr noundef nonnull align 8 dereferenceable(32) %7)
  ret void
}

; Function Attrs: mustprogress uwtable
define internal noundef ptr @_ZN4pkpyL8io_fopenEPKcS1_(ptr noundef %0, ptr noundef %1) #4 {
  %3 = alloca ptr, align 8
  %4 = alloca ptr, align 8
  store ptr %0, ptr %3, align 8
  store ptr %1, ptr %4, align 8
  %5 = load ptr, ptr %3, align 8
  %6 = load ptr, ptr %4, align 8
  %7 = call noalias ptr @fopen(ptr noundef %5, ptr noundef %6)
  ret ptr %7
}

; Function Attrs: mustprogress nounwind uwtable
define linkonce_odr noundef ptr @_ZNK4pkpy3Str5c_strEv(ptr noundef nonnull align 8 dereferenceable(32) %0) #5 comdat align 2 {
  %2 = alloca ptr, align 8
  store ptr %0, ptr %2, align 8
  %3 = load ptr, ptr %2, align 8
  %4 = getelementptr inbounds %"struct.pkpy::Str", ptr %3, i32 0, i32 2
  %5 = load ptr, ptr %4, align 8
  ret ptr %5
}

; Function Attrs: mustprogress nounwind uwtable
define linkonce_odr noundef i64 @_ZNKSt17basic_string_viewIcSt11char_traitsIcEE4findEPKcm(ptr noundef nonnull align 8 dereferenceable(16) %0, ptr noundef nonnull %1, i64 noundef %2) #5 comdat align 2 {
  %4 = alloca ptr, align 8
  %5 = alloca ptr, align 8
  %6 = alloca i64, align 8
  store ptr %0, ptr %4, align 8
  store ptr %1, ptr %5, align 8
  store i64 %2, ptr %6, align 8
  %7 = load ptr, ptr %4, align 8
  %8 = load ptr, ptr %5, align 8
  %9 = load i64, ptr %6, align 8
  %10 = load ptr, ptr %5, align 8
  %11 = call noundef i64 @_ZNSt11char_traitsIcE6lengthEPKc(ptr noundef %10)
  %12 = call noundef i64 @_ZNKSt17basic_string_viewIcSt11char_traitsIcEE4findEPKcmm(ptr noundef nonnull align 8 dereferenceable(16) %7, ptr noundef %8, i64 noundef %9, i64 noundef %11) #3
  ret i64 %12
}

; Function Attrs: mustprogress nounwind uwtable
define linkonce_odr { i64, ptr } @_ZNK4pkpy3Str2svEv(ptr noundef nonnull align 8 dereferenceable(32) %0) #5 comdat align 2 {
  %2 = alloca %"class.std::basic_string_view", align 8
  %3 = alloca ptr, align 8
  store ptr %0, ptr %3, align 8
  %4 = load ptr, ptr %3, align 8
  %5 = getelementptr inbounds %"struct.pkpy::Str", ptr %4, i32 0, i32 2
  %6 = load ptr, ptr %5, align 8
  %7 = getelementptr inbounds %"struct.pkpy::Str", ptr %4, i32 0, i32 0
  %8 = load i32, ptr %7, align 8
  %9 = sext i32 %8 to i64
  call void @_ZNSt17basic_string_viewIcSt11char_traitsIcEEC2EPKcm(ptr noundef nonnull align 8 dereferenceable(16) %2, ptr noundef %6, i64 noundef %9) #3
  %10 = load { i64, ptr }, ptr %2, align 8
  ret { i64, ptr } %10
}

; Function Attrs: mustprogress uwtable
define void @_ZN4pkpy6FileIOC2EPNS_2VMERKNS_3StrES5_(ptr noundef nonnull align 8 dereferenceable(9) %0, ptr noundef %1, ptr noundef nonnull align 8 dereferenceable(32) %2, ptr noundef nonnull align 8 dereferenceable(32) %3) unnamed_addr #4 align 2 personality ptr @__gxx_personality_v0 {
  %5 = alloca ptr, align 8
  %6 = alloca ptr, align 8
  %7 = alloca ptr, align 8
  %8 = alloca ptr, align 8
  %9 = alloca %"class.std::basic_string_view", align 8
  %10 = alloca %"struct.pkpy::Str", align 8
  %11 = alloca ptr, align 8
  %12 = alloca i32, align 4
  store ptr %0, ptr %5, align 8
  store ptr %1, ptr %6, align 8
  store ptr %2, ptr %7, align 8
  store ptr %3, ptr %8, align 8
  %13 = load ptr, ptr %5, align 8
  %14 = load ptr, ptr %8, align 8
  %15 = call { i64, ptr } @_ZNK4pkpy3Str2svEv(ptr noundef nonnull align 8 dereferenceable(32) %14)
  %16 = getelementptr inbounds { i64, ptr }, ptr %9, i32 0, i32 0
  %17 = extractvalue { i64, ptr } %15, 0
  store i64 %17, ptr %16, align 8
  %18 = getelementptr inbounds { i64, ptr }, ptr %9, i32 0, i32 1
  %19 = extractvalue { i64, ptr } %15, 1
  store ptr %19, ptr %18, align 8
  %20 = call noundef i64 @_ZNKSt17basic_string_viewIcSt11char_traitsIcEE4findEPKcm(ptr noundef nonnull align 8 dereferenceable(16) %9, ptr noundef @.str.6, i64 noundef 0) #3
  %21 = icmp eq i64 %20, -1
  %22 = getelementptr inbounds %"struct.pkpy::FileIO", ptr %13, i32 0, i32 1
  %23 = zext i1 %21 to i8
  store i8 %23, ptr %22, align 8
  %24 = load ptr, ptr %7, align 8
  %25 = call noundef ptr @_ZNK4pkpy3Str5c_strEv(ptr noundef nonnull align 8 dereferenceable(32) %24)
  %26 = load ptr, ptr %8, align 8
  %27 = call noundef ptr @_ZNK4pkpy3Str5c_strEv(ptr noundef nonnull align 8 dereferenceable(32) %26)
  %28 = call noundef ptr @_ZN4pkpyL8io_fopenEPKcS1_(ptr noundef %25, ptr noundef %27)
  %29 = getelementptr inbounds %"struct.pkpy::FileIO", ptr %13, i32 0, i32 0
  store ptr %28, ptr %29, align 8
  %30 = getelementptr inbounds %"struct.pkpy::FileIO", ptr %13, i32 0, i32 0
  %31 = load ptr, ptr %30, align 8
  %32 = icmp ne ptr %31, null
  br i1 %32, label %43, label %33

33:                                               ; preds = %4
  %34 = load ptr, ptr %6, align 8
  %35 = call ptr @__errno_location() #18
  %36 = load i32, ptr %35, align 4
  %37 = call ptr @strerror(i32 noundef %36) #3
  call void @_ZN4pkpy3StrC1EPKc(ptr noundef nonnull align 8 dereferenceable(32) %10, ptr noundef %37)
  invoke void @_ZN4pkpy2VM7IOErrorERKNS_3StrE(ptr noundef nonnull align 8 dereferenceable(264913) %34, ptr noundef nonnull align 8 dereferenceable(32) %10)
          to label %38 unwind label %39

38:                                               ; preds = %33
  call void @_ZN4pkpy3StrD1Ev(ptr noundef nonnull align 8 dereferenceable(32) %10) #3
  br label %43

39:                                               ; preds = %33
  %40 = landingpad { ptr, i32 }
          cleanup
  %41 = extractvalue { ptr, i32 } %40, 0
  store ptr %41, ptr %11, align 8
  %42 = extractvalue { ptr, i32 } %40, 1
  store i32 %42, ptr %12, align 4
  call void @_ZN4pkpy3StrD1Ev(ptr noundef nonnull align 8 dereferenceable(32) %10) #3
  br label %44

43:                                               ; preds = %38, %4
  ret void

44:                                               ; preds = %39
  %45 = load ptr, ptr %11, align 8
  %46 = load i32, ptr %12, align 4
  %47 = insertvalue { ptr, i32 } poison, ptr %45, 0
  %48 = insertvalue { ptr, i32 } %47, i32 %46, 1
  resume { ptr, i32 } %48
}